; Function Attrs: mustprogress uwtable
define hidden noundef i64 @_ZN14duckdb_mbedtls14MbedTlsWrapper18AESGCMStateMBEDTLS7ProcessEPKhmPhm(ptr noundef nonnull readonly align 8 captures(none) dereferenceable(24) %0, ptr noundef %1, i64 noundef %2, ptr noundef %3, i64 noundef %4) unnamed_addr #0 align 2 personality ptr @__gxx_personality_v0 {
  %6 = alloca i64, align 8
  %7 = getelementptr inbounds nuw i8, ptr %0, i64 16
  %8 = load ptr, ptr %7, align 8, !tbaa !28
  call void @llvm.lifetime.start.p0(i64 8, ptr nonnull %6) #19
  %9 = call i32 @mbedtls_gcm_update(ptr noundef %8, ptr noundef %1, i64 noundef %2, ptr noundef %3, i64 noundef %4, ptr noundef nonnull %6)
  %.not = icmp eq i32 %9, 0
  br i1 %.not, label %15, label %10

10:                                               ; preds = %5
  %11 = call ptr @__cxa_allocate_exception(i64 16) #19
  invoke void @_ZNSt13runtime_errorC1EPKc(ptr noundef nonnull align 8 dereferenceable(16) %11, ptr noundef nonnull @.str.11)
          to label %12 unwind label %13

12:                                               ; preds = %10
  call void @__cxa_throw(ptr nonnull %11, ptr nonnull @_ZTISt13runtime_error, ptr nonnull @_ZNSt13runtime_errorD1Ev) #20
  unreachable

13:                                               ; preds = %10
  %14 = landingpad { ptr, i32 }
          cleanup
  call void @__cxa_free_exception(ptr nonnull %11) #19
  call void @llvm.lifetime.end.p0(i64 8, ptr nonnull %6) #19
  resume { ptr, i32 } %14

15:                                               ; preds = %5
  %16 = load i64, ptr %6, align 8, !tbaa !32
  call void @llvm.lifetime.end.p0(i64 8, ptr nonnull %6) #19
  ret i64 %16
}